(lp0
S'This is a cyan car'
p1
aS'That is a cyan car'
p2
aS'Here we have a cyan car'
p3
aS'I can see a cyan car'
p4
aS'In front of me there is cyan car'
p5
aS'Here there is a car and its color is cyan'
p6
aS'I see a car and its color is cyan'
p7
a.